; Function Attrs: mustprogress uwtable
define noalias noundef ptr @_ZNK6icu_7710CharString9cloneDataER10UErrorCode(ptr noundef nonnull readonly align 8 captures(none) dereferenceable(60) %0, ptr noundef nonnull align 4 captures(none) dereferenceable(4) %1) local_unnamed_addr #1 align 2 {
  %3 = load i32, ptr %1, align 4, !tbaa !13
  %4 = icmp slt i32 %3, 1
  br i1 %4, label %5, label %18

5:                                                ; preds = %2
  %6 = getelementptr inbounds nuw i8, ptr %0, i64 56
  %7 = load i32, ptr %6, align 8, !tbaa !15
  %8 = add nsw i32 %7, 1
  %9 = sext i32 %8 to i64
  %10 = tail call noalias ptr @uprv_malloc_77(i64 noundef %9) #19
  %11 = icmp eq ptr %10, null
  br i1 %11, label %12, label %13

12:                                               ; preds = %5
  store i32 7, ptr %1, align 4, !tbaa !13
  br label %18

13:                                               ; preds = %5
  %14 = load ptr, ptr %0, align 8, !tbaa !3
  %15 = load i32, ptr %6, align 8, !tbaa !15
  %16 = add nsw i32 %15, 1
  %17 = sext i32 %16 to i64
  tail call void @llvm.memcpy.p0.p0.i64(ptr nonnull align 1 %10, ptr align 1 %14, i64 %17, i1 false)
  br label %18

18:                                               ; preds = %12, %13, %2
  %.0 = phi ptr [ null, %2 ], [ null, %12 ], [ %10, %13 ]
  ret ptr %.0
}